; Function Attrs: nounwind sspstrong uwtable
define hidden void @pm_buffer_append_double(ptr noundef captures(none) %0, double noundef %1) local_unnamed_addr #4 {
  %3 = load i64, ptr %0, align 8, !tbaa !7
  %4 = add i64 %3, 8
  %5 = getelementptr inbounds nuw i8, ptr %0, i64 8
  %6 = load i64, ptr %5, align 8, !tbaa !14
  %7 = icmp ugt i64 %4, %6
  br i1 %7, label %8, label %._crit_edge.i

._crit_edge.i:                                    ; preds = %2
  %.phi.trans.insert.i = getelementptr inbounds nuw i8, ptr %0, i64 16
  %.pre.i = load ptr, ptr %.phi.trans.insert.i, align 8, !tbaa !15
  br label %21

8:                                                ; preds = %2
  %9 = icmp eq i64 %6, 0
  br i1 %9, label %10, label %11

10:                                               ; preds = %8
  store i64 1, ptr %5, align 8, !tbaa !14
  br label %11

11:                                               ; preds = %10, %8
  %.promoted.i.i = phi i64 [ 1, %10 ], [ %6, %8 ]
  %12 = icmp ugt i64 %4, %.promoted.i.i
  br i1 %12, label %.lr.ph.i.i, label %16

.lr.ph.i.i:                                       ; preds = %11, %.lr.ph.i.i
  %13 = phi i64 [ %14, %.lr.ph.i.i ], [ %.promoted.i.i, %11 ]
  %14 = shl i64 %13, 1
  %15 = icmp ugt i64 %4, %14
  br i1 %15, label %.lr.ph.i.i, label %._crit_edge.i.i, !llvm.loop !16

._crit_edge.i.i:                                  ; preds = %.lr.ph.i.i
  store i64 %14, ptr %5, align 8, !tbaa !14
  br label %16

16:                                               ; preds = %._crit_edge.i.i, %11
  %.lcssa.i.i = phi i64 [ %14, %._crit_edge.i.i ], [ %.promoted.i.i, %11 ]
  %17 = getelementptr inbounds nuw i8, ptr %0, i64 16
  %18 = load ptr, ptr %17, align 8, !tbaa !15
  %19 = tail call ptr @realloc(ptr noundef %18, i64 noundef %.lcssa.i.i) #18
  store ptr %19, ptr %17, align 8, !tbaa !15
  %20 = icmp eq ptr %19, null
  br i1 %20, label %pm_buffer_append.exit, label %21

21:                                               ; preds = %16, %._crit_edge.i
  %22 = phi ptr [ %.pre.i, %._crit_edge.i ], [ %19, %16 ]
  store i64 %4, ptr %0, align 8, !tbaa !7
  %23 = getelementptr i8, ptr %22, i64 %3
  store double %1, ptr %23, align 1
  br label %pm_buffer_append.exit

pm_buffer_append.exit:                            ; preds = %16, %21
  ret void
}